; Function Attrs: mustprogress uwtable
define internal fastcc noundef zeroext i1 @_ZN32pxrInternal_v0_24__pxrReserved__L8_IsCloseINS_7GfQuatfEEEbRKNS_7VtArrayIT_EES6_(ptr noundef nonnull align 8 dereferenceable(40) %0, ptr noundef nonnull align 8 dereferenceable(40) %1) unnamed_addr #0 {
  %3 = tail call noundef i64 @_ZNK32pxrInternal_v0_24__pxrReserved__7VtArrayINS_7GfQuatfEE4sizeEv(ptr noundef nonnull align 8 dereferenceable(40) %0)
  %4 = tail call noundef i64 @_ZNK32pxrInternal_v0_24__pxrReserved__7VtArrayINS_7GfQuatfEE4sizeEv(ptr noundef nonnull align 8 dereferenceable(40) %1)
  %.not = icmp eq i64 %3, %4
  br i1 %.not, label %.preheader, label %_ZN32pxrInternal_v0_24__pxrReserved__L8_IsCloseINS_7GfQuatfETnPNSt9enable_ifIXsr10GfIsGfQuatIT_EE5valueEvE4typeELPv0EEEbRKS3_S9_.exit.thread

.preheader:                                       ; preds = %2
  %5 = tail call noundef i64 @_ZNK32pxrInternal_v0_24__pxrReserved__7VtArrayINS_7GfQuatfEE4sizeEv(ptr noundef nonnull align 8 dereferenceable(40) %0)
  %.not15 = icmp eq i64 %5, 0
  br i1 %.not15, label %_ZN32pxrInternal_v0_24__pxrReserved__L8_IsCloseINS_7GfQuatfETnPNSt9enable_ifIXsr10GfIsGfQuatIT_EE5valueEvE4typeELPv0EEEbRKS3_S9_.exit.thread, label %.lr.ph

6:                                                ; preds = %_ZN32pxrInternal_v0_24__pxrReserved__L8_IsCloseINS_7GfQuatfETnPNSt9enable_ifIXsr10GfIsGfQuatIT_EE5valueEvE4typeELPv0EEEbRKS3_S9_.exit
  %7 = add nuw i64 %.011, 1
  %8 = tail call noundef i64 @_ZNK32pxrInternal_v0_24__pxrReserved__7VtArrayINS_7GfQuatfEE4sizeEv(ptr noundef nonnull align 8 dereferenceable(40) %0)
  %9 = icmp ult i64 %7, %8
  br i1 %9, label %.lr.ph, label %_ZN32pxrInternal_v0_24__pxrReserved__L8_IsCloseINS_7GfQuatfETnPNSt9enable_ifIXsr10GfIsGfQuatIT_EE5valueEvE4typeELPv0EEEbRKS3_S9_.exit.thread, !llvm.loop !32

.lr.ph:                                           ; preds = %.preheader, %6
  %.011 = phi i64 [ %7, %6 ], [ 0, %.preheader ]
  %10 = tail call noundef nonnull align 4 dereferenceable(16) ptr @_ZNK32pxrInternal_v0_24__pxrReserved__7VtArrayINS_7GfQuatfEEixEm(ptr noundef nonnull align 8 dereferenceable(40) %0, i64 noundef %.011)
  %11 = tail call noundef nonnull align 4 dereferenceable(16) ptr @_ZNK32pxrInternal_v0_24__pxrReserved__7VtArrayINS_7GfQuatfEEixEm(ptr noundef nonnull align 8 dereferenceable(40) %1, i64 noundef %.011)
  %12 = getelementptr inbounds nuw i8, ptr %10, i64 12
  %13 = load float, ptr %12, align 4
  %14 = getelementptr inbounds nuw i8, ptr %11, i64 12
  %15 = load float, ptr %14, align 4
  %16 = fpext float %13 to double
  %17 = fpext float %15 to double
  %18 = fsub double %16, %17
  %19 = tail call double @llvm.fabs.f64(double %18)
  %20 = fcmp olt double %19, 0x3EB0C6F7A0B5ED8D
  br i1 %20, label %.preheader.i, label %_ZN32pxrInternal_v0_24__pxrReserved__L8_IsCloseINS_7GfQuatfETnPNSt9enable_ifIXsr10GfIsGfQuatIT_EE5valueEvE4typeELPv0EEEbRKS3_S9_.exit.thread

.preheader.i:                                     ; preds = %.lr.ph, %.preheader.i
  %.08.i.i = phi i64 [ %28, %.preheader.i ], [ 0, %.lr.ph ]
  %21 = getelementptr inbounds nuw [3 x float], ptr %10, i64 0, i64 %.08.i.i
  %22 = getelementptr inbounds nuw [3 x float], ptr %11, i64 0, i64 %.08.i.i
  %.val.i.i = load float, ptr %21, align 4
  %.val7.i.i = load float, ptr %22, align 4
  %23 = fpext float %.val.i.i to double
  %24 = fpext float %.val7.i.i to double
  %25 = fsub double %23, %24
  %26 = tail call double @llvm.fabs.f64(double %25)
  %27 = fcmp olt double %26, 0x3EB0C6F7A0B5ED8D
  %28 = add nuw nsw i64 %.08.i.i, 1
  %exitcond.i.i = icmp ne i64 %28, 3
  %or.cond.not.i.i = select i1 %27, i1 %exitcond.i.i, i1 false
  br i1 %or.cond.not.i.i, label %.preheader.i, label %_ZN32pxrInternal_v0_24__pxrReserved__L8_IsCloseINS_7GfQuatfETnPNSt9enable_ifIXsr10GfIsGfQuatIT_EE5valueEvE4typeELPv0EEEbRKS3_S9_.exit, !llvm.loop !10

_ZN32pxrInternal_v0_24__pxrReserved__L8_IsCloseINS_7GfQuatfETnPNSt9enable_ifIXsr10GfIsGfQuatIT_EE5valueEvE4typeELPv0EEEbRKS3_S9_.exit: ; preds = %.preheader.i
  br i1 %27, label %6, label %_ZN32pxrInternal_v0_24__pxrReserved__L8_IsCloseINS_7GfQuatfETnPNSt9enable_ifIXsr10GfIsGfQuatIT_EE5valueEvE4typeELPv0EEEbRKS3_S9_.exit.thread

_ZN32pxrInternal_v0_24__pxrReserved__L8_IsCloseINS_7GfQuatfETnPNSt9enable_ifIXsr10GfIsGfQuatIT_EE5valueEvE4typeELPv0EEEbRKS3_S9_.exit.thread: ; preds = %_ZN32pxrInternal_v0_24__pxrReserved__L8_IsCloseINS_7GfQuatfETnPNSt9enable_ifIXsr10GfIsGfQuatIT_EE5valueEvE4typeELPv0EEEbRKS3_S9_.exit, %6, %.lr.ph, %.preheader, %2
  %.09 = phi i1 [ false, %2 ], [ true, %.preheader ], [ false, %_ZN32pxrInternal_v0_24__pxrReserved__L8_IsCloseINS_7GfQuatfETnPNSt9enable_ifIXsr10GfIsGfQuatIT_EE5valueEvE4typeELPv0EEEbRKS3_S9_.exit ], [ true, %6 ], [ false, %.lr.ph ]
  ret i1 %.09
}